target datalayout = "e-m:e-p270:32:32-p271:32:32-p272:64:64-i64:64-i128:128-f80:128-n8:16:32:64-S128"
target triple = "x86_64-pc-linux-gnu"

%struct._zval_struct = type { %union._zend_value, %union.anon, %union.anon.2 }
%union._zend_value = type { i64 }
%union.anon = type { i32 }
%union.anon.2 = type { i32 }
%struct._zend_refcounted_h = type { i32, %union.anon.3 }
%union.anon.3 = type { i32 }
%struct._php_ps_globals = type { ptr, ptr, ptr, ptr, ptr, i64, ptr, ptr, ptr, i8, i8, ptr, ptr, ptr, i32, ptr, i32, i32, %struct._php_random_status_state_pcgoneseq128xslrr64, %struct._php_random_algo_with_state, i64, i64, i64, i64, %struct.anon.8, ptr, i8, i8, i8, i8, i8, i8, i8, i8, ptr, %struct._zval_struct, i64, i64, ptr, ptr, ptr, i64, double, i8, i8, i8, i8, i8, i8, ptr }
%struct._php_random_status_state_pcgoneseq128xslrr64 = type { i128 }
%struct._php_random_algo_with_state = type { ptr, ptr }
%struct.anon.8 = type { %struct._zval_struct, %struct._zval_struct, %struct._zval_struct, %struct._zval_struct, %struct._zval_struct, %struct._zval_struct, %struct._zval_struct, %struct._zval_struct, %struct._zval_struct }
%struct._zend_string = type { %struct._zend_refcounted_h, i64, i64, [1 x i8] }
%struct.anon.0 = type { i8, i8, %union.anon.1 }
%union.anon.1 = type { i16 }

@ps_globals = external global %struct._php_ps_globals, align 16
@.str.2 = private unnamed_addr constant [35 x i8] c"No session id returned by function\00", align 1
@.str.3 = private unnamed_addr constant [28 x i8] c"Session id must be a string\00", align 1
@.str.4 = private unnamed_addr constant [55 x i8] c"Cannot call session save handler in a recursive manner\00", align 1

; Function Attrs: alwaysinline nounwind uwtable
define internal i32 @zend_gc_addref(ptr noundef %0) #2 {
  %2 = alloca ptr, align 8
  store ptr %0, ptr %2, align 8, !tbaa !71
  br label %3

3:                                                ; preds = %1
  br label %4

4:                                                ; preds = %3
  %5 = load ptr, ptr %2, align 8, !tbaa !71
  %6 = getelementptr inbounds nuw %struct._zend_refcounted_h, ptr %5, i32 0, i32 0
  %7 = load i32, ptr %6, align 4, !tbaa !73
  %8 = add i32 %7, 1
  store i32 %8, ptr %6, align 4, !tbaa !73
  ret i32 %8
}

; Function Attrs: alwaysinline nounwind uwtable
define internal i32 @zval_gc_flags(i32 noundef %0) #2 {
  %2 = alloca i32, align 4
  store i32 %0, ptr %2, align 4, !tbaa !10
  %3 = load i32, ptr %2, align 4, !tbaa !10
  %4 = lshr i32 %3, 0
  %5 = and i32 %4, 1008
  ret i32 %5
}

; Function Attrs: alwaysinline nounwind uwtable
define internal ptr @zend_string_copy(ptr noundef %0) #2 {
  %2 = alloca ptr, align 8
  store ptr %0, ptr %2, align 8, !tbaa !14
  %3 = load ptr, ptr %2, align 8, !tbaa !14
  %4 = getelementptr inbounds nuw %struct._zend_string, ptr %3, i32 0, i32 0
  %5 = getelementptr inbounds nuw %struct._zend_refcounted_h, ptr %4, i32 0, i32 1
  %6 = load i32, ptr %5, align 4, !tbaa !16
  %7 = call i32 @zval_gc_flags(i32 noundef %6)
  %8 = and i32 %7, 64
  %9 = icmp ne i32 %8, 0
  br i1 %9, label %14, label %10

10:                                               ; preds = %1
  %11 = load ptr, ptr %2, align 8, !tbaa !14
  %12 = getelementptr inbounds nuw %struct._zend_string, ptr %11, i32 0, i32 0
  %13 = call i32 @zend_gc_addref(ptr noundef %12)
  br label %14

14:                                               ; preds = %10, %1
  %15 = load ptr, ptr %2, align 8, !tbaa !14
  ret ptr %15
}

; Function Attrs: nounwind uwtable
define internal void @ps_call_handler(ptr noundef %0, i32 noundef %1, ptr noundef %2, ptr noundef %3) #0 {
  %5 = alloca ptr, align 8
  %6 = alloca i32, align 4
  %7 = alloca ptr, align 8
  %8 = alloca ptr, align 8
  %9 = alloca i32, align 4
  %10 = alloca i32, align 4
  store ptr %0, ptr %5, align 8, !tbaa !12
  store i32 %1, ptr %6, align 4, !tbaa !10
  store ptr %2, ptr %7, align 8, !tbaa !12
  store ptr %3, ptr %8, align 8, !tbaa !12
  call void @llvm.lifetime.start.p0(i64 4, ptr %9) #10
  %11 = load i8, ptr getelementptr inbounds nuw (%struct._php_ps_globals, ptr @ps_globals, i32 0, i32 47), align 4, !tbaa !69, !range !62, !noundef !63
  %12 = trunc i8 %11 to i1
  br i1 %12, label %13, label %19

13:                                               ; preds = %4
  store i8 0, ptr getelementptr inbounds nuw (%struct._php_ps_globals, ptr @ps_globals, i32 0, i32 47), align 4, !tbaa !69
  br label %14

14:                                               ; preds = %13
  %15 = load ptr, ptr %8, align 8, !tbaa !12
  %16 = getelementptr inbounds nuw %struct._zval_struct, ptr %15, i32 0, i32 1
  store i32 0, ptr %16, align 8, !tbaa !16
  br label %17

17:                                               ; preds = %14
  br label %18

18:                                               ; preds = %17
  call void (ptr, i32, ptr, ...) @php_error_docref(ptr noundef null, i32 noundef 2, ptr noundef @.str.4)
  store i32 1, ptr %10, align 4
  br label %59

19:                                               ; preds = %4
  store i8 1, ptr getelementptr inbounds nuw (%struct._php_ps_globals, ptr @ps_globals, i32 0, i32 47), align 4, !tbaa !69
  %20 = load ptr, ptr %5, align 8, !tbaa !12
  %21 = load ptr, ptr %8, align 8, !tbaa !12
  %22 = load i32, ptr %6, align 4, !tbaa !10
  %23 = load ptr, ptr %7, align 8, !tbaa !12
  %24 = call i32 @_call_user_function_impl(ptr noundef null, ptr noundef %20, ptr noundef %21, i32 noundef %22, ptr noundef %23, ptr noundef null)
  %25 = icmp eq i32 %24, -1
  br i1 %25, label %26, label %33

26:                                               ; preds = %19
  %27 = load ptr, ptr %8, align 8, !tbaa !12
  call void @zval_ptr_dtor(ptr noundef %27)
  br label %28

28:                                               ; preds = %26
  %29 = load ptr, ptr %8, align 8, !tbaa !12
  %30 = getelementptr inbounds nuw %struct._zval_struct, ptr %29, i32 0, i32 1
  store i32 0, ptr %30, align 8, !tbaa !16
  br label %31

31:                                               ; preds = %28
  br label %32

32:                                               ; preds = %31
  br label %45

33:                                               ; preds = %19
  %34 = load ptr, ptr %8, align 8, !tbaa !12
  %35 = call zeroext i8 @zval_get_type(ptr noundef %34)
  %36 = zext i8 %35 to i32
  %37 = icmp eq i32 %36, 0
  br i1 %37, label %38, label %44

38:                                               ; preds = %33
  br label %39

39:                                               ; preds = %38
  %40 = load ptr, ptr %8, align 8, !tbaa !12
  %41 = getelementptr inbounds nuw %struct._zval_struct, ptr %40, i32 0, i32 1
  store i32 1, ptr %41, align 8, !tbaa !16
  br label %42

42:                                               ; preds = %39
  br label %43

43:                                               ; preds = %42
  br label %44

44:                                               ; preds = %43, %33
  br label %45

45:                                               ; preds = %44, %32
  store i8 0, ptr getelementptr inbounds nuw (%struct._php_ps_globals, ptr @ps_globals, i32 0, i32 47), align 4, !tbaa !69
  store i32 0, ptr %9, align 4, !tbaa !10
  br label %46

46:                                               ; preds = %55, %45
  %47 = load i32, ptr %9, align 4, !tbaa !10
  %48 = load i32, ptr %6, align 4, !tbaa !10
  %49 = icmp slt i32 %47, %48
  br i1 %49, label %50, label %58

50:                                               ; preds = %46
  %51 = load ptr, ptr %7, align 8, !tbaa !12
  %52 = load i32, ptr %9, align 4, !tbaa !10
  %53 = sext i32 %52 to i64
  %54 = getelementptr inbounds %struct._zval_struct, ptr %51, i64 %53
  call void @zval_ptr_dtor(ptr noundef %54)
  br label %55

55:                                               ; preds = %50
  %56 = load i32, ptr %9, align 4, !tbaa !10
  %57 = add nsw i32 %56, 1
  store i32 %57, ptr %9, align 4, !tbaa !10
  br label %46

58:                                               ; preds = %46
  store i32 0, ptr %10, align 4
  br label %59

59:                                               ; preds = %58, %18
  call void @llvm.lifetime.end.p0(i64 4, ptr %9) #10
  %60 = load i32, ptr %10, align 4
  switch i32 %60, label %62 [
    i32 0, label %61
    i32 1, label %61
  ]

61:                                               ; preds = %59, %59
  ret void

62:                                               ; preds = %59
  unreachable
}

; Function Attrs: alwaysinline nounwind uwtable
define internal zeroext i8 @zval_get_type(ptr noundef %0) #2 {
  %2 = alloca ptr, align 8
  store ptr %0, ptr %2, align 8, !tbaa !12
  %3 = load ptr, ptr %2, align 8, !tbaa !12
  %4 = getelementptr inbounds nuw %struct._zval_struct, ptr %3, i32 0, i32 1
  %5 = getelementptr inbounds nuw %struct.anon.0, ptr %4, i32 0, i32 0
  %6 = load i8, ptr %5, align 8, !tbaa !16
  ret i8 %6
}

; Function Attrs: nounwind uwtable
define hidden ptr @ps_create_sid_user(ptr noundef %0) #0 {
  %2 = alloca ptr, align 8
  %3 = alloca ptr, align 8
  %4 = alloca ptr, align 8
  %5 = alloca %struct._zval_struct, align 8
  %6 = alloca i32, align 4
  store ptr %0, ptr %3, align 8, !tbaa !4
  %7 = call zeroext i8 @zval_get_type(ptr noundef getelementptr inbounds nuw (%struct.anon.8, ptr getelementptr inbounds nuw (%struct._php_ps_globals, ptr @ps_globals, i32 0, i32 24), i32 0, i32 6))
  %8 = zext i8 %7 to i32
  %9 = icmp eq i32 %8, 0
  br i1 %9, label %31, label %10

10:                                               ; preds = %1
  call void @llvm.lifetime.start.p0(i64 8, ptr %4) #10
  store ptr null, ptr %4, align 8, !tbaa !14
  call void @llvm.lifetime.start.p0(i64 16, ptr %5) #10
  call void @ps_call_handler(ptr noundef getelementptr inbounds nuw (%struct.anon.8, ptr getelementptr inbounds nuw (%struct._php_ps_globals, ptr @ps_globals, i32 0, i32 24), i32 0, i32 6), i32 noundef 0, ptr noundef null, ptr noundef %5)
  %11 = call zeroext i8 @zval_get_type(ptr noundef %5)
  %12 = zext i8 %11 to i32
  %13 = icmp eq i32 %12, 0
  br i1 %13, label %23, label %14

14:                                               ; preds = %10
  %15 = call zeroext i8 @zval_get_type(ptr noundef %5)
  %16 = zext i8 %15 to i32
  %17 = icmp eq i32 %16, 6
  br i1 %17, label %18, label %22

18:                                               ; preds = %14
  %19 = getelementptr inbounds nuw %struct._zval_struct, ptr %5, i32 0, i32 0
  %20 = load ptr, ptr %19, align 8, !tbaa !16
  %21 = call ptr @zend_string_copy(ptr noundef %20)
  store ptr %21, ptr %4, align 8, !tbaa !14
  br label %22

22:                                               ; preds = %18, %14
  call void @zval_ptr_dtor(ptr noundef %5)
  br label %24

23:                                               ; preds = %10
  call void (ptr, ptr, ...) @zend_throw_error(ptr noundef null, ptr noundef @.str.2)
  store ptr null, ptr %2, align 8
  store i32 1, ptr %6, align 4
  br label %30

24:                                               ; preds = %22
  %25 = load ptr, ptr %4, align 8, !tbaa !14
  %26 = icmp ne ptr %25, null
  br i1 %26, label %28, label %27

27:                                               ; preds = %24
  call void (ptr, ptr, ...) @zend_throw_error(ptr noundef null, ptr noundef @.str.3)
  store ptr null, ptr %2, align 8
  store i32 1, ptr %6, align 4
  br label %30

28:                                               ; preds = %24
  %29 = load ptr, ptr %4, align 8, !tbaa !14
  store ptr %29, ptr %2, align 8
  store i32 1, ptr %6, align 4
  br label %30

30:                                               ; preds = %28, %27, %23
  call void @llvm.lifetime.end.p0(i64 16, ptr %5) #10
  call void @llvm.lifetime.end.p0(i64 8, ptr %4) #10
  br label %34

31:                                               ; preds = %1
  %32 = load ptr, ptr %3, align 8, !tbaa !4
  %33 = call ptr @php_session_create_id(ptr noundef %32)
  store ptr %33, ptr %2, align 8
  br label %34

34:                                               ; preds = %31, %30
  %35 = load ptr, ptr %2, align 8
  ret ptr %35
}