; Function Attrs: nounwind uwtable
define hidden ptr @ps_create_sid_user(ptr noundef %0) #0 {
  %2 = alloca %struct._zval_struct, align 8
  %3 = load i8, ptr getelementptr inbounds nuw (i8, ptr @ps_globals, i64 296), align 8, !tbaa !9
  %4 = icmp eq i8 %3, 0
  br i1 %4, label %28, label %5

5:                                                ; preds = %1
  call void @llvm.lifetime.start.p0(i64 16, ptr nonnull %2) #8
  %6 = load i8, ptr getelementptr inbounds nuw (i8, ptr @ps_globals, i64 436), align 4, !tbaa !47, !range !58, !noundef !59
  %7 = trunc nuw i8 %6 to i1
  br i1 %7, label %ps_call_handler.exit.thread, label %9

ps_call_handler.exit.thread:                      ; preds = %5
  store i8 0, ptr getelementptr inbounds nuw (i8, ptr @ps_globals, i64 436), align 4, !tbaa !47
  %8 = getelementptr inbounds nuw i8, ptr %2, i64 8
  store i32 0, ptr %8, align 8, !tbaa !9
  tail call void (ptr, i32, ptr, ...) @php_error_docref(ptr noundef null, i32 noundef 2, ptr noundef nonnull @.str.4) #8
  br label %25

9:                                                ; preds = %5
  store i8 1, ptr getelementptr inbounds nuw (i8, ptr @ps_globals, i64 436), align 4, !tbaa !47
  %10 = call i32 @_call_user_function_impl(ptr noundef null, ptr noundef nonnull getelementptr inbounds nuw (i8, ptr @ps_globals, i64 288), ptr noundef nonnull %2, i32 noundef 0, ptr noundef null, ptr noundef null) #8
  %11 = icmp eq i32 %10, -1
  br i1 %11, label %ps_call_handler.exit.thread8, label %13

ps_call_handler.exit.thread8:                     ; preds = %9
  call void @zval_ptr_dtor(ptr noundef nonnull %2) #8
  %12 = getelementptr inbounds nuw i8, ptr %2, i64 8
  store i32 0, ptr %12, align 8, !tbaa !9
  store i8 0, ptr getelementptr inbounds nuw (i8, ptr @ps_globals, i64 436), align 4, !tbaa !47
  br label %25

13:                                               ; preds = %9
  %14 = getelementptr inbounds nuw i8, ptr %2, i64 8
  %15 = load i8, ptr %14, align 8, !tbaa !9
  %16 = icmp eq i8 %15, 0
  br i1 %16, label %ps_call_handler.exit.thread7, label %ps_call_handler.exit

ps_call_handler.exit.thread7:                     ; preds = %13
  store i32 1, ptr %14, align 8, !tbaa !9
  store i8 0, ptr getelementptr inbounds nuw (i8, ptr @ps_globals, i64 436), align 4, !tbaa !47
  br label %26

ps_call_handler.exit:                             ; preds = %13
  store i8 0, ptr getelementptr inbounds nuw (i8, ptr @ps_globals, i64 436), align 4, !tbaa !47
  %cond = icmp eq i8 %15, 6
  br i1 %cond, label %17, label %26

17:                                               ; preds = %ps_call_handler.exit
  %18 = load ptr, ptr %2, align 8, !tbaa !9
  %19 = getelementptr inbounds nuw i8, ptr %18, i64 4
  %20 = load i32, ptr %19, align 4, !tbaa !9
  %21 = and i32 %20, 64
  %.not.i = icmp eq i32 %21, 0
  br i1 %.not.i, label %22, label %zend_string_copy.exit.thread

22:                                               ; preds = %17
  %23 = load i32, ptr %18, align 4, !tbaa !4
  %24 = add i32 %23, 1
  store i32 %24, ptr %18, align 4, !tbaa !4
  br label %zend_string_copy.exit.thread

zend_string_copy.exit.thread:                     ; preds = %17, %22
  call void @zval_ptr_dtor(ptr noundef nonnull %2) #8
  br label %27

25:                                               ; preds = %ps_call_handler.exit.thread8, %ps_call_handler.exit.thread
  call void (ptr, ptr, ...) @zend_throw_error(ptr noundef null, ptr noundef nonnull @.str.2) #8
  br label %27

26:                                               ; preds = %ps_call_handler.exit, %ps_call_handler.exit.thread7
  call void @zval_ptr_dtor(ptr noundef nonnull %2) #8
  call void (ptr, ptr, ...) @zend_throw_error(ptr noundef null, ptr noundef nonnull @.str.3) #8
  br label %27

27:                                               ; preds = %zend_string_copy.exit.thread, %26, %25
  %.04 = phi ptr [ null, %25 ], [ null, %26 ], [ %18, %zend_string_copy.exit.thread ]
  call void @llvm.lifetime.end.p0(i64 16, ptr nonnull %2) #8
  br label %30

28:                                               ; preds = %1
  %29 = tail call ptr @php_session_create_id(ptr noundef %0) #8
  br label %30

30:                                               ; preds = %28, %27
  %.1 = phi ptr [ %29, %28 ], [ %.04, %27 ]
  ret ptr %.1
}